; Function Attrs: nounwind uwtable
define ptr @H5O_open_by_loc(ptr noundef %0, ptr noundef %1) local_unnamed_addr #1 {
  %3 = load ptr, ptr %0, align 8
  %4 = tail call ptr @H5O__obj_class(ptr noundef %3)
  %5 = icmp eq ptr %4, null
  br i1 %5, label %6, label %10

6:                                                ; preds = %2
  %7 = load i64, ptr @H5E_OHDR_g, align 8
  %8 = load i64, ptr @H5E_CANTGET_g, align 8
  %9 = tail call i32 (ptr, ptr, i32, i64, i64, ptr, ...) @H5E_printf_stack(ptr noundef nonnull @.str.4, ptr noundef nonnull @__func__.H5O_open_by_loc, i32 noundef 718, i64 noundef %7, i64 noundef %8, ptr noundef nonnull @.str.27) #11
  br label %19

10:                                               ; preds = %2
  %11 = getelementptr inbounds i8, ptr %4, i64 40
  %12 = load ptr, ptr %11, align 8
  %13 = tail call ptr %12(ptr noundef nonnull %0, ptr noundef %1) #11
  %14 = icmp eq ptr %13, null
  br i1 %14, label %15, label %19

15:                                               ; preds = %10
  %16 = load i64, ptr @H5E_OHDR_g, align 8
  %17 = load i64, ptr @H5E_CANTOPENOBJ_g, align 8
  %18 = tail call i32 (ptr, ptr, i32, i64, i64, ptr, ...) @H5E_printf_stack(ptr noundef nonnull @.str.4, ptr noundef nonnull @__func__.H5O_open_by_loc, i32 noundef 723, i64 noundef %16, i64 noundef %17, ptr noundef nonnull @.str.24) #11
  br label %19

19:                                               ; preds = %10, %15, %6
  %.0 = phi ptr [ null, %6 ], [ null, %15 ], [ %13, %10 ]
  ret ptr %.0
}